; Function Attrs: nounwind sspstrong uwtable
define internal noundef i64 @ossl_x509stctx_set_error(i64 noundef %0, i64 noundef returned %1) #0 {
  %3 = tail call ptr @rb_check_typeddata(i64 noundef %0, ptr noundef nonnull @ossl_x509stctx_type) #5
  %.not = icmp eq ptr %3, null
  br i1 %.not, label %4, label %6

4:                                                ; preds = %2
  %5 = load i64, ptr @rb_eRuntimeError, align 8, !tbaa !20
  tail call void (i64, ptr, ...) @ossl_raise(i64 noundef %5, ptr noundef nonnull @.str.52) #7
  unreachable

6:                                                ; preds = %2
  %7 = and i64 %1, 1
  %.not.i = icmp eq i64 %7, 0
  br i1 %.not.i, label %10, label %8

8:                                                ; preds = %6
  %9 = tail call i64 @rb_fix2int(i64 noundef %1) #5
  br label %rb_num2int_inline.exit

10:                                               ; preds = %6
  %11 = tail call i64 @rb_num2int(i64 noundef %1) #5
  br label %rb_num2int_inline.exit

rb_num2int_inline.exit:                           ; preds = %8, %10
  %.0.i = phi i64 [ %9, %8 ], [ %11, %10 ]
  %12 = trunc i64 %.0.i to i32
  tail call void @X509_STORE_CTX_set_error(ptr noundef nonnull %3, i32 noundef %12) #5
  ret i64 %1
}